ccopy_reg
_reconstructor
p1
(csklearn.linear_model.base
LinearRegression
p2
c__builtin__
object
p3
NtRp4
(dp5
S'normalize'
p6
I00
sS'n_jobs'
p7
I1
sS'rank_'
p8
I1
sS'fit_intercept'
p9
I01
sS'_residues'
p10
cnumpy.core.multiarray
scalar
p11
(cnumpy
dtype
p12
(S'f8'
I0
I1
tRp13
(I3
S'<'
NNNI-1
I-1
I0
tbS'/\n\xa3H\xb6c\xde?'
tRp14
sS'coef_'
p15
cnumpy.core.multiarray
_reconstruct
p16
(cnumpy
ndarray
p17
(I0
tS'b'
tRp18
(I1
(I1
tg13
I00
S'A!@\xa2\xdc\xa2\xc0?'
tbsS'_sklearn_version'
p19
S'0.19.1'
p20
sS'copy_X'
p21
I01
sS'intercept_'
p22
g11
(g13
S'd\x03\xf7\t\x16I\x15@'
tRp23
sS'singular_'
p24
g16
(g17
(I0
tS'b'
tRp25
(I1
(I1
tg13
I00
S'\x8b\xd4\xfa\x8e\xe6^ @'
tbsb.